target datalayout = "e-m:e-p270:32:32-p271:32:32-p272:64:64-i64:64-i128:128-f80:128-n8:16:32:64-S128"
target triple = "x86_64-pc-linux-gnu"

%struct._object = type { %union.anon, ptr }
%union.anon = type { i64 }
%struct.SHA3object = type { %struct._object, i8, %struct.PyMutex, ptr }
%struct.PyMutex = type { i8 }

; Function Attrs: nounwind uwtable
define internal ptr @SHA3_get_capacity_bits(ptr noundef %0, ptr noundef %1) #0 {
  %3 = alloca ptr, align 8
  %4 = alloca ptr, align 8
  %5 = alloca ptr, align 8
  %6 = alloca i32, align 4
  %7 = alloca i32, align 4
  store ptr %0, ptr %3, align 8, !tbaa !3
  store ptr %1, ptr %4, align 8, !tbaa !8
  call void @llvm.lifetime.start.p0(i64 8, ptr %5) #7
  %8 = load ptr, ptr %3, align 8, !tbaa !3
  store ptr %8, ptr %5, align 8, !tbaa !8
  call void @llvm.lifetime.start.p0(i64 4, ptr %6) #7
  %9 = load ptr, ptr %5, align 8, !tbaa !8
  %10 = getelementptr inbounds nuw %struct.SHA3object, ptr %9, i32 0, i32 3
  %11 = load ptr, ptr %10, align 8, !tbaa !22
  %12 = call i32 @python_hashlib_Hacl_Hash_SHA3_block_len(ptr noundef %11)
  %13 = mul i32 %12, 8
  store i32 %13, ptr %6, align 4, !tbaa !12
  call void @llvm.lifetime.start.p0(i64 4, ptr %7) #7
  %14 = load i32, ptr %6, align 4, !tbaa !12
  %15 = sub i32 1600, %14
  store i32 %15, ptr %7, align 4, !tbaa !12
  %16 = load i32, ptr %7, align 4, !tbaa !12
  %17 = sext i32 %16 to i64
  %18 = call ptr @PyLong_FromLong(i64 noundef %17)
  call void @llvm.lifetime.end.p0(i64 4, ptr %7) #7
  call void @llvm.lifetime.end.p0(i64 4, ptr %6) #7
  call void @llvm.lifetime.end.p0(i64 8, ptr %5) #7
  ret ptr %18
}